target datalayout = "e-m:e-p270:32:32-p271:32:32-p272:64:64-i64:64-i128:128-f80:128-n8:16:32:64-S128"
target triple = "x86_64-pc-linux-gnu"

@.str.90 = private unnamed_addr constant [30 x i8] c"Open Policy Service Interface\00", align 1
@.str.91 = private unnamed_addr constant [5 x i8] c"OPSI\00", align 1
@.str.92 = private unnamed_addr constant [5 x i8] c"opsi\00", align 1
@proto_opsi = internal global i32 0, align 4
@.str.93 = private unnamed_addr constant [24 x i8] c"desegment_opsi_messages\00", align 1
@.str.94 = private unnamed_addr constant [56 x i8] c"Reassemble OPSI messages spanning multiple TCP segments\00", align 1
@.str.95 = private unnamed_addr constant [88 x i8] c"Whether the OPSI dissector should desegment all messages spanning multiple TCP segments\00", align 1
@opsi_desegment = internal global i8 1, align 1
@opsi_handle = internal global ptr null, align 8

; Function Attrs: null_pointer_is_valid sspstrong uwtable
define hidden void @proto_register_opsi() #0 {
  %1 = alloca ptr, align 8
  %2 = alloca ptr, align 8
  call void @llvm.lifetime.start.p0(i64 8, ptr %1) #3
  call void @llvm.lifetime.start.p0(i64 8, ptr %2) #3
  %3 = call i32 @proto_register_protocol(ptr noundef @.str.90, ptr noundef @.str.91, ptr noundef @.str.92)
  store i32 %3, ptr @proto_opsi, align 4
  %4 = load i32, ptr @proto_opsi, align 4
  call void @proto_register_field_array(i32 noundef %4, ptr noundef @proto_register_opsi.hf, i32 noundef 42)
  call void @proto_register_subtree_array(ptr noundef @proto_register_opsi.ett, i32 noundef 36)
  %5 = load i32, ptr @proto_opsi, align 4
  %6 = call ptr @expert_register_protocol(i32 noundef %5)
  store ptr %6, ptr %2, align 8
  %7 = load ptr, ptr %2, align 8
  call void @expert_register_field_array(ptr noundef %7, ptr noundef @proto_register_opsi.ei, i32 noundef 3)
  %8 = load i32, ptr @proto_opsi, align 4
  %9 = call ptr @prefs_register_protocol(i32 noundef %8, ptr noundef null)
  store ptr %9, ptr %1, align 8
  %10 = load ptr, ptr %1, align 8
  call void @prefs_register_bool_preference(ptr noundef %10, ptr noundef @.str.93, ptr noundef @.str.94, ptr noundef @.str.95, ptr noundef @opsi_desegment)
  %11 = load i32, ptr @proto_opsi, align 4
  %12 = call ptr @register_dissector(ptr noundef @.str.92, ptr noundef @dissect_opsi, i32 noundef %11)
  store ptr %12, ptr @opsi_handle, align 8
  call void @llvm.lifetime.end.p0(i64 8, ptr %2) #3
  call void @llvm.lifetime.end.p0(i64 8, ptr %1) #3
  ret void
}